target datalayout = "e-m:e-p270:32:32-p271:32:32-p272:64:64-i64:64-i128:128-f80:128-n8:16:32:64-S128"
target triple = "x86_64-pc-linux-gnu"

@method_tls_dump = internal global ptr null, align 8
@.str = private unnamed_addr constant [16 x i8] c"TLS dump filter\00", align 1

; Function Attrs: nounwind uwtable
define dso_local ptr @bio_f_tls_dump_filter() #0 {
  %1 = alloca ptr, align 8
  %2 = load ptr, ptr @method_tls_dump, align 8, !tbaa !4
  %3 = icmp eq ptr %2, null
  br i1 %3, label %4, label %38

4:                                                ; preds = %0
  %5 = call ptr @BIO_meth_new(i32 noundef 640, ptr noundef @.str)
  store ptr %5, ptr @method_tls_dump, align 8, !tbaa !4
  %6 = load ptr, ptr @method_tls_dump, align 8, !tbaa !4
  %7 = icmp eq ptr %6, null
  br i1 %7, label %36, label %8

8:                                                ; preds = %4
  %9 = load ptr, ptr @method_tls_dump, align 8, !tbaa !4
  %10 = call i32 @BIO_meth_set_write(ptr noundef %9, ptr noundef @tls_dump_write)
  %11 = icmp ne i32 %10, 0
  br i1 %11, label %12, label %36

12:                                               ; preds = %8
  %13 = load ptr, ptr @method_tls_dump, align 8, !tbaa !4
  %14 = call i32 @BIO_meth_set_read(ptr noundef %13, ptr noundef @tls_dump_read)
  %15 = icmp ne i32 %14, 0
  br i1 %15, label %16, label %36

16:                                               ; preds = %12
  %17 = load ptr, ptr @method_tls_dump, align 8, !tbaa !4
  %18 = call i32 @BIO_meth_set_puts(ptr noundef %17, ptr noundef @tls_dump_puts)
  %19 = icmp ne i32 %18, 0
  br i1 %19, label %20, label %36

20:                                               ; preds = %16
  %21 = load ptr, ptr @method_tls_dump, align 8, !tbaa !4
  %22 = call i32 @BIO_meth_set_gets(ptr noundef %21, ptr noundef @tls_dump_gets)
  %23 = icmp ne i32 %22, 0
  br i1 %23, label %24, label %36

24:                                               ; preds = %20
  %25 = load ptr, ptr @method_tls_dump, align 8, !tbaa !4
  %26 = call i32 @BIO_meth_set_ctrl(ptr noundef %25, ptr noundef @tls_dump_ctrl)
  %27 = icmp ne i32 %26, 0
  br i1 %27, label %28, label %36

28:                                               ; preds = %24
  %29 = load ptr, ptr @method_tls_dump, align 8, !tbaa !4
  %30 = call i32 @BIO_meth_set_create(ptr noundef %29, ptr noundef @tls_dump_new)
  %31 = icmp ne i32 %30, 0
  br i1 %31, label %32, label %36

32:                                               ; preds = %28
  %33 = load ptr, ptr @method_tls_dump, align 8, !tbaa !4
  %34 = call i32 @BIO_meth_set_destroy(ptr noundef %33, ptr noundef @tls_dump_free)
  %35 = icmp ne i32 %34, 0
  br i1 %35, label %37, label %36

36:                                               ; preds = %32, %28, %24, %20, %16, %12, %8, %4
  store ptr null, ptr %1, align 8
  br label %40

37:                                               ; preds = %32
  br label %38

38:                                               ; preds = %37, %0
  %39 = load ptr, ptr @method_tls_dump, align 8, !tbaa !4
  store ptr %39, ptr %1, align 8
  br label %40

40:                                               ; preds = %38, %36
  %41 = load ptr, ptr %1, align 8
  ret ptr %41
}